
main.o:     file format elf64-x86-64


Disassembly of section .text:

0000000000000000 <main>:
   0:	f3 0f 1e fa          	endbr64 
   4:	55                   	push   %rbp
   5:	48 89 e5             	mov    %rsp,%rbp
   8:	48 83 ec 10          	sub    $0x10,%rsp
   c:	be 0a 00 00 00       	mov    $0xa,%esi
  11:	48 8d 3d 00 00 00 00 	lea    0x0(%rip),%rdi        # 18 <main+0x18>
  18:	e8 00 00 00 00       	callq  1d <main+0x1d>
  1d:	48 8d 05 00 00 00 00 	lea    0x0(%rip),%rax        # 24 <main+0x24>
  24:	ba 02 00 00 00       	mov    $0x2,%edx
  29:	be 2b 00 00 00       	mov    $0x2b,%esi
  2e:	48 89 c7             	mov    %rax,%rdi
  31:	e8 00 00 00 00       	callq  36 <main+0x36>
  36:	ba 61 00 00 00       	mov    $0x61,%edx
  3b:	be 00 00 00 00       	mov    $0x0,%esi
  40:	48 8d 3d 00 00 00 00 	lea    0x0(%rip),%rdi        # 47 <main+0x47>
  47:	e8 00 00 00 00       	callq  4c <main+0x4c>
  4c:	be 09 00 00 00       	mov    $0x9,%esi
  51:	48 8d 3d 00 00 00 00 	lea    0x0(%rip),%rdi        # 58 <main+0x58>
  58:	e8 00 00 00 00       	callq  5d <main+0x5d>
  5d:	88 45 fb             	mov    %al,-0x5(%rbp)
  60:	0f b6 45 fb          	movzbl -0x5(%rbp),%eax
  64:	83 c0 27             	add    $0x27,%eax
  67:	0f be c0             	movsbl %al,%eax
  6a:	89 c2                	mov    %eax,%edx
  6c:	be 09 00 00 00       	mov    $0x9,%esi
  71:	48 8d 3d 00 00 00 00 	lea    0x0(%rip),%rdi        # 78 <main+0x78>
  78:	e8 00 00 00 00       	callq  7d <main+0x7d>
  7d:	ba 37 00 00 00       	mov    $0x37,%edx
  82:	be 03 00 00 00       	mov    $0x3,%esi
  87:	48 8d 3d 00 00 00 00 	lea    0x0(%rip),%rdi        # 8e <main+0x8e>
  8e:	e8 00 00 00 00       	callq  93 <main+0x93>
  93:	ba 58 00 00 00       	mov    $0x58,%edx
  98:	be 01 00 00 00       	mov    $0x1,%esi
  9d:	48 8d 3d 00 00 00 00 	lea    0x0(%rip),%rdi        # a4 <main+0xa4>
  a4:	e8 00 00 00 00       	callq  a9 <main+0xa9>
  a9:	ba 32 00 00 00       	mov    $0x32,%edx
  ae:	be 04 00 00 00       	mov    $0x4,%esi
  b3:	48 8d 3d 00 00 00 00 	lea    0x0(%rip),%rdi        # ba <main+0xba>
  ba:	e8 00 00 00 00       	callq  bf <main+0xbf>
  bf:	be 01 00 00 00       	mov    $0x1,%esi
  c4:	48 8d 3d 00 00 00 00 	lea    0x0(%rip),%rdi        # cb <main+0xcb>
  cb:	e8 00 00 00 00       	callq  d0 <main+0xd0>
  d0:	88 45 fb             	mov    %al,-0x5(%rbp)
  d3:	ba 79 00 00 00       	mov    $0x79,%edx
  d8:	be 02 00 00 00       	mov    $0x2,%esi
  dd:	48 8d 3d 00 00 00 00 	lea    0x0(%rip),%rdi        # e4 <main+0xe4>
  e4:	e8 00 00 00 00       	callq  e9 <main+0xe9>
  e9:	0f b6 45 fb          	movzbl -0x5(%rbp),%eax
  ed:	83 e8 0c             	sub    $0xc,%eax
  f0:	0f be c0             	movsbl %al,%eax
  f3:	89 c2                	mov    %eax,%edx
  f5:	be 07 00 00 00       	mov    $0x7,%esi
  fa:	48 8d 3d 00 00 00 00 	lea    0x0(%rip),%rdi        # 101 <main+0x101>
 101:	e8 00 00 00 00       	callq  106 <main+0x106>
 106:	ba 5f 00 00 00       	mov    $0x5f,%edx
 10b:	be 05 00 00 00       	mov    $0x5,%esi
 110:	48 8d 3d 00 00 00 00 	lea    0x0(%rip),%rdi        # 117 <main+0x117>
 117:	e8 00 00 00 00       	callq  11c <main+0x11c>
 11c:	c7 45 fc 00 00 00 00 	movl   $0x0,-0x4(%rbp)
 123:	eb 1c                	jmp    141 <main+0x141>
 125:	8b 45 fc             	mov    -0x4(%rbp),%eax
 128:	48 8d 15 00 00 00 00 	lea    0x0(%rip),%rdx        # 12f <main+0x12f>
 12f:	0f b6 04 10          	movzbl (%rax,%rdx,1),%eax
 133:	0f be c0             	movsbl %al,%eax
 136:	89 c7                	mov    %eax,%edi
 138:	e8 00 00 00 00       	callq  13d <main+0x13d>
 13d:	83 45 fc 01          	addl   $0x1,-0x4(%rbp)
 141:	83 7d fc 09          	cmpl   $0x9,-0x4(%rbp)
 145:	76 de                	jbe    125 <main+0x125>
 147:	bf 0a 00 00 00       	mov    $0xa,%edi
 14c:	e8 00 00 00 00       	callq  151 <main+0x151>
 151:	b8 00 00 00 00       	mov    $0x0,%eax
 156:	c9                   	leaveq 
 157:	c3                   	retq   
